Certificate:
    Data:
        Version: 3 (0x2)
        Serial Number: 0 (0x0)
    Signature Algorithm: sha1WithRSAEncryption
        Issuer: C=CH, ST=shanghai, L=shanghai, O=hotpu, OU=hotpu, CN=cq/emailAddress=quanchao@hotpu.cn
        Validity
            Not Before: Jan 19 09:17:06 2017 GMT
            Not After : Jan 17 09:17:06 2027 GMT
        Subject: C=CH, ST=shanghai, O=hotpu, OU=hotpu, CN=cq/emailAddress=quanchao@hotpu.cn
        Subject Public Key Info:
            Public Key Algorithm: rsaEncryption
                Public-Key: (2048 bit)
                Modulus:
                    00:c3:59:a1:e5:28:9b:15:8b:b2:1c:09:f3:03:af:
                    bf:83:9f:21:40:9f:2b:e4:e3:3a:c0:4c:ed:f7:0e:
                    ae:3e:94:27:2d:37:bb:d3:5a:26:74:ed:5e:bb:0c:
                    2d:70:b1:90:f5:4e:ed:c4:12:4e:5b:ab:55:b5:1d:
                    e5:92:91:8f:08:7b:ef:42:27:cb:cc:84:68:c7:3e:
                    5c:b1:a5:25:a9:63:fe:d1:c6:e0:f7:d7:f0:69:e1:
                    6a:84:d8:d3:ff:d8:7d:9c:ba:29:b2:30:68:22:f5:
                    f7:54:99:53:87:33:2d:8f:bd:9a:a5:fc:e1:30:8a:
                    cb:85:b2:26:4d:0c:0e:10:94:05:c0:65:d0:ed:4f:
                    40:ff:28:38:40:8f:82:19:f7:8e:4d:ae:71:1c:5f:
                    16:01:8b:96:38:a3:52:f3:47:dd:15:c7:e3:e8:4a:
                    2c:08:d4:da:c8:2f:d6:51:8c:73:57:7d:02:a0:ea:
                    a3:17:7e:1f:8e:c2:15:7d:fa:6f:d3:3d:66:9f:62:
                    65:95:8c:25:6e:e4:39:27:11:b9:fd:9f:75:da:2a:
                    1c:29:a0:33:92:df:27:ec:b8:18:00:c8:01:5e:54:
                    36:a3:74:50:03:32:ba:55:05:7e:07:12:79:98:b6:
                    39:e1:a2:aa:b5:30:fb:3c:36:f3:b0:4d:a4:c3:93:
                    ff:5f
                Exponent: 65537 (0x10001)
        X509v3 extensions:
            X509v3 Basic Constraints: 
                CA:FALSE
            Netscape Comment: 
                OpenSSL Generated Certificate
            X509v3 Subject Key Identifier: 
                E7:E3:E0:86:41:52:43:EE:D0:8D:82:93:EC:5F:BB:27:41:C5:50:85
            X509v3 Authority Key Identifier: 
                keyid:F7:02:77:92:19:AB:43:99:A2:CA:87:2E:AF:C2:2A:EB:14:10:2D:8C

    Signature Algorithm: sha1WithRSAEncryption
         16:0e:a9:2f:eb:1d:66:a3:5d:19:e8:ac:42:8b:02:99:f1:e4:
         46:73:52:cf:af:2f:42:7b:35:88:00:18:58:9f:33:f8:fe:c6:
         df:b1:5f:6c:23:94:47:46:db:67:26:62:58:bc:92:ca:87:1d:
         96:7c:6d:99:31:de:77:f2:b1:8b:ae:e4:9b:5a:d2:38:5a:cf:
         a4:5a:1d:ab:a9:90:d0:7f:cf:70:69:ee:5b:d2:a8:13:48:10:
         70:e6:c3:a3:d7:01:dd:08:fc:ae:c4:d1:24:88:4c:e4:0f:61:
         73:b1:15:90:8f:04:d7:a8:e1:41:7d:b2:04:7b:1f:03:4c:57:
         48:0d:18:58:8f:72:1f:c7:9f:43:da:56:73:98:eb:af:de:62:
         e6:5a:4a:3b:5b:45:22:39:7f:d3:43:81:cc:56:52:f3:a1:a1:
         b7:a0:6e:7c:f6:65:fc:9f:40:e3:31:cb:f9:3e:77:4b:4e:be:
         76:33:29:28:4d:ff:cb:3b:b3:58:fa:2f:0f:f9:f0:ce:42:ad:
         e0:f9:06:06:eb:c8:fa:50:19:f9:b3:1d:bb:40:42:ce:45:6f:
         49:c8:9f:bc:32:43:8f:2f:c8:21:27:a4:66:6d:4f:6b:c3:e2:
         05:5a:69:8b:96:91:91:f1:90:34:8e:67:8b:c6:7d:79:95:91:
         19:9b:68:83
-----BEGIN CERTIFICATE-----
MIID6DCCAtCgAwIBAgIBADANBgkqhkiG9w0BAQUFADCBgjELMAkGA1UEBhMCQ0gx
ETAPBgNVBAgMCHNoYW5naGFpMREwDwYDVQQHDAhzaGFuZ2hhaTEOMAwGA1UECgwF
aG90cHUxDjAMBgNVBAsMBWhvdHB1MQswCQYDVQQDDAJjcTEgMB4GCSqGSIb3DQEJ
ARYRcXVhbmNoYW9AaG90cHUuY24wHhcNMTcwMTE5MDkxNzA2WhcNMjcwMTE3MDkx
NzA2WjBvMQswCQYDVQQGEwJDSDERMA8GA1UECAwIc2hhbmdoYWkxDjAMBgNVBAoM
BWhvdHB1MQ4wDAYDVQQLDAVob3RwdTELMAkGA1UEAwwCY3ExIDAeBgkqhkiG9w0B
CQEWEXF1YW5jaGFvQGhvdHB1LmNuMIIBIjANBgkqhkiG9w0BAQEFAAOCAQ8AMIIB
CgKCAQEAw1mh5SibFYuyHAnzA6+/g58hQJ8r5OM6wEzt9w6uPpQnLTe701omdO1e
uwwtcLGQ9U7txBJOW6tVtR3lkpGPCHvvQifLzIRoxz5csaUlqWP+0cbg99fwaeFq
hNjT/9h9nLopsjBoIvX3VJlThzMtj72apfzhMIrLhbImTQwOEJQFwGXQ7U9A/yg4
QI+CGfeOTa5xHF8WAYuWOKNS80fdFcfj6EosCNTayC/WUYxzV30CoOqjF34fjsIV
ffpv0z1mn2JllYwlbuQ5JxG5/Z912iocKaAzkt8n7LgYAMgBXlQ2o3RQAzK6VQV+
BxJ5mLY54aKqtTD7PDbzsE2kw5P/XwIDAQABo3sweTAJBgNVHRMEAjAAMCwGCWCG
SAGG+EIBDQQfFh1PcGVuU1NMIEdlbmVyYXRlZCBDZXJ0aWZpY2F0ZTAdBgNVHQ4E
FgQU5+PghkFSQ+7QjYKT7F+7J0HFUIUwHwYDVR0jBBgwFoAU9wJ3khmrQ5miyocu
r8Iq6xQQLYwwDQYJKoZIhvcNAQEFBQADggEBABYOqS/rHWajXRnorEKLApnx5EZz
Us+vL0J7NYgAGFifM/j+xt+xX2wjlEdG22cmYli8ksqHHZZ8bZkx3nfysYuu5Jta
0jhaz6RaHaupkNB/z3Bp7lvSqBNIEHDmw6PXAd0I/K7E0SSITOQPYXOxFZCPBNeo
4UF9sgR7HwNMV0gNGFiPch/Hn0PaVnOY66/eYuZaSjtbRSI5f9NDgcxWUvOhobeg
bnz2ZfyfQOMxy/k+d0tOvnYzKShN/8s7s1j6Lw/58M5CreD5BgbryPpQGfmzHbtA
Qs5Fb0nIn7wyQ48vyCEnpGZtT2vD4gVaaYuWkZHxkDSOZ4vGfXmVkRmbaIM=
-----END CERTIFICATE-----
